; Function Attrs: mustprogress uwtable
define void @_ZN6opencc8TextDict11NewFromDictERKNS_4DictE(ptr dead_on_unwind noalias nocapture writable writeonly sret(%"class.std::shared_ptr.0") align 8 %0, ptr noundef nonnull align 8 dereferenceable(8) %1) local_unnamed_addr #3 align 2 personality ptr @__gxx_personality_v0 {
  %3 = alloca %"class.std::shared_ptr", align 8
  %4 = tail call noalias noundef nonnull dereferenceable(40) ptr @_Znwm(i64 noundef 40) #22
  %5 = load ptr, ptr %1, align 8
  %6 = getelementptr inbounds i8, ptr %5, i64 32
  %7 = load ptr, ptr %6, align 8
  invoke void %7(ptr dead_on_unwind nonnull writable sret(%"class.std::shared_ptr") align 8 %3, ptr noundef nonnull align 8 dereferenceable(8) %1)
          to label %8 unwind label %.thread

8:                                                ; preds = %2
  invoke void @_ZN6opencc8TextDictC1ERKSt10shared_ptrINS_7LexiconEE(ptr noundef nonnull align 8 dereferenceable(40) %4, ptr noundef nonnull align 8 dereferenceable(16) %3)
          to label %9 unwind label %.thread10

9:                                                ; preds = %8
  store ptr %4, ptr %0, align 8
  %10 = getelementptr inbounds i8, ptr %0, i64 8
  store ptr null, ptr %10, align 8
  %11 = invoke noalias noundef nonnull dereferenceable(24) ptr @_Znwm(i64 noundef 24) #22
          to label %25 unwind label %12

12:                                               ; preds = %9
  %13 = landingpad { ptr, i32 }
          catch ptr null
  %14 = extractvalue { ptr, i32 } %13, 0
  %15 = call ptr @__cxa_begin_catch(ptr %14) #20
  %16 = load ptr, ptr %4, align 8
  %17 = getelementptr inbounds i8, ptr %16, i64 48
  %18 = load ptr, ptr %17, align 8
  call void %18(ptr noundef nonnull align 8 dereferenceable(40) %4) #20
  invoke void @__cxa_rethrow() #23
          to label %24 unwind label %19

19:                                               ; preds = %12
  %20 = landingpad { ptr, i32 }
          cleanup
  invoke void @__cxa_end_catch()
          to label %67 unwind label %21

21:                                               ; preds = %19
  %22 = landingpad { ptr, i32 }
          catch ptr null
  %23 = extractvalue { ptr, i32 } %22, 0
  call void @__clang_call_terminate(ptr %23) #24
  unreachable

24:                                               ; preds = %12
  unreachable

25:                                               ; preds = %9
  %26 = getelementptr inbounds i8, ptr %11, i64 8
  store i32 1, ptr %26, align 8
  %27 = getelementptr inbounds i8, ptr %11, i64 12
  store i32 1, ptr %27, align 4
  store ptr getelementptr inbounds inrange(-16, 40) ({ [7 x ptr] }, ptr @_ZTVSt15_Sp_counted_ptrIPN6opencc8TextDictELN9__gnu_cxx12_Lock_policyE2EE, i64 0, i32 0, i64 2), ptr %11, align 8
  %28 = getelementptr inbounds i8, ptr %11, i64 16
  store ptr %4, ptr %28, align 8
  store ptr %11, ptr %10, align 8
  %29 = getelementptr inbounds i8, ptr %3, i64 8
  %30 = load ptr, ptr %29, align 8
  %.not.i.i.i = icmp eq ptr %30, null
  br i1 %.not.i.i.i, label %_ZNSt10shared_ptrIN6opencc7LexiconEED2Ev.exit, label %31

31:                                               ; preds = %25
  %32 = getelementptr inbounds i8, ptr %30, i64 8
  %33 = load atomic i64, ptr %32 acquire, align 8
  %34 = icmp eq i64 %33, 4294967297
  %35 = trunc i64 %33 to i32
  br i1 %34, label %36, label %41

36:                                               ; preds = %31
  store i32 0, ptr %32, align 8
  %37 = getelementptr inbounds i8, ptr %30, i64 12
  store i32 0, ptr %37, align 4
  %38 = load ptr, ptr %30, align 8
  %39 = getelementptr inbounds i8, ptr %38, i64 16
  %40 = load ptr, ptr %39, align 8
  call void %40(ptr noundef nonnull align 8 dereferenceable(16) %30) #20
  br label %_ZNSt16_Sp_counted_baseILN9__gnu_cxx12_Lock_policyE2EE24_M_release_last_use_coldEv.exit.sink.split.i.i.i.i

41:                                               ; preds = %31
  %42 = load i8, ptr @__libc_single_threaded, align 1
  %.not.i.i.i.i = icmp eq i8 %42, 0
  br i1 %.not.i.i.i.i, label %45, label %43

43:                                               ; preds = %41
  %44 = add nsw i32 %35, -1
  store i32 %44, ptr %32, align 4
  br label %47

45:                                               ; preds = %41
  %46 = atomicrmw volatile add ptr %32, i32 -1 acq_rel, align 4
  br label %47

47:                                               ; preds = %45, %43
  %.0.i.i.i.i = phi i32 [ %35, %43 ], [ %46, %45 ]
  %48 = icmp eq i32 %.0.i.i.i.i, 1
  br i1 %48, label %49, label %_ZNSt10shared_ptrIN6opencc7LexiconEED2Ev.exit

49:                                               ; preds = %47
  %50 = load ptr, ptr %30, align 8
  %51 = getelementptr inbounds i8, ptr %50, i64 16
  %52 = load ptr, ptr %51, align 8
  call void %52(ptr noundef nonnull align 8 dereferenceable(16) %30) #20
  %53 = getelementptr inbounds i8, ptr %30, i64 12
  %54 = load i8, ptr @__libc_single_threaded, align 1
  %.not.i.i.i.i.i.i = icmp eq i8 %54, 0
  br i1 %.not.i.i.i.i.i.i, label %58, label %55

55:                                               ; preds = %49
  %56 = load i32, ptr %53, align 4
  %57 = add nsw i32 %56, -1
  store i32 %57, ptr %53, align 4
  br label %60

58:                                               ; preds = %49
  %59 = atomicrmw volatile add ptr %53, i32 -1 acq_rel, align 4
  br label %60

60:                                               ; preds = %58, %55
  %.0.i.i.i.i.i.i = phi i32 [ %56, %55 ], [ %59, %58 ]
  %61 = icmp eq i32 %.0.i.i.i.i.i.i, 1
  br i1 %61, label %_ZNSt16_Sp_counted_baseILN9__gnu_cxx12_Lock_policyE2EE24_M_release_last_use_coldEv.exit.sink.split.i.i.i.i, label %_ZNSt10shared_ptrIN6opencc7LexiconEED2Ev.exit

_ZNSt16_Sp_counted_baseILN9__gnu_cxx12_Lock_policyE2EE24_M_release_last_use_coldEv.exit.sink.split.i.i.i.i: ; preds = %60, %36
  %62 = load ptr, ptr %30, align 8
  %63 = getelementptr inbounds i8, ptr %62, i64 24
  %64 = load ptr, ptr %63, align 8
  call void %64(ptr noundef nonnull align 8 dereferenceable(16) %30) #20
  br label %_ZNSt10shared_ptrIN6opencc7LexiconEED2Ev.exit

_ZNSt10shared_ptrIN6opencc7LexiconEED2Ev.exit:    ; preds = %25, %47, %60, %_ZNSt16_Sp_counted_baseILN9__gnu_cxx12_Lock_policyE2EE24_M_release_last_use_coldEv.exit.sink.split.i.i.i.i
  ret void

.thread:                                          ; preds = %2
  %65 = landingpad { ptr, i32 }
          cleanup
  br label %68

.thread10:                                        ; preds = %8
  %66 = landingpad { ptr, i32 }
          cleanup
  call void @_ZNSt10shared_ptrIN6opencc7LexiconEED2Ev(ptr noundef nonnull align 8 dereferenceable(16) %3) #20
  br label %68

67:                                               ; preds = %19
  call void @_ZNSt10shared_ptrIN6opencc7LexiconEED2Ev(ptr noundef nonnull align 8 dereferenceable(16) %3) #20
  br label %69

68:                                               ; preds = %.thread10, %.thread
  %.pn9 = phi { ptr, i32 } [ %65, %.thread ], [ %66, %.thread10 ]
  call void @_ZdlPv(ptr noundef nonnull %4) #21
  br label %69

69:                                               ; preds = %67, %68
  %.pn8 = phi { ptr, i32 } [ %20, %67 ], [ %.pn9, %68 ]
  resume { ptr, i32 } %.pn8
}